target datalayout = "e-m:e-p270:32:32-p271:32:32-p272:64:64-i64:64-i128:128-f80:128-n8:16:32:64-S128"
target triple = "x86_64-pc-linux-gnu"

%struct.Gia_Man_t_ = type { ptr, ptr, i32, i32, i32, i32, ptr, ptr, i32, i32, i32, ptr, ptr, %struct.Vec_Int_t_, %struct.Vec_Int_t_, i32, i32, i32, %struct.Vec_Int_t_, ptr, ptr, ptr, i32, i32, i32, i32, ptr, ptr, ptr, ptr, ptr, i32, i32, ptr, i32, ptr, ptr, ptr, ptr, ptr, ptr, ptr, ptr, ptr, ptr, ptr, ptr, ptr, ptr, ptr, ptr, ptr, ptr, %struct.Vec_Int_t_, %struct.Vec_Int_t_, ptr, ptr, ptr, ptr, ptr, ptr, ptr, ptr, ptr, ptr, ptr, ptr, ptr, ptr, ptr, ptr, ptr, ptr, ptr, ptr, ptr, i32, float, float, ptr, ptr, i32, ptr, ptr, ptr, ptr, ptr, ptr, ptr, ptr, ptr, ptr, ptr, ptr, ptr, ptr, ptr, i64, i64, ptr, ptr, i32, i32, i32, i32, i32, i32, i32, i32, i32, i32, i32, i32, ptr, ptr, ptr, ptr, ptr, ptr, ptr, ptr, i32, i32, i32, ptr, i32, i32, ptr, ptr, ptr, ptr, ptr, ptr, i32, i32, ptr, %struct.Vec_Int_t_, %struct.Vec_Int_t_, %struct.Vec_Int_t_, ptr, ptr, ptr, i32, i32, i32, i32, ptr, ptr, ptr, ptr, ptr }
%struct.Vec_Int_t_ = type { i32, i32, ptr }
%struct.Vec_Ptr_t_ = type { i32, i32, ptr }
%struct.Cec_ManSim_t_ = type { ptr, ptr, i32, ptr, ptr, i32, i32, i32, i32, i32, ptr, ptr, ptr, i32, i32, ptr, ptr, ptr, ptr, ptr, ptr, ptr }
%struct.Cec_ParSim_t_ = type { i32, i32, i32, i32, i32, i32, i32, i32, i32, i32, i32, i32 }

; Function Attrs: inlinehint nounwind uwtable
define internal ptr @Vec_PtrEntry(ptr noundef %0, i32 noundef %1) #5 {
  %3 = alloca ptr, align 8
  %4 = alloca i32, align 4
  store ptr %0, ptr %3, align 8, !tbaa !44
  store i32 %1, ptr %4, align 4, !tbaa !43
  %5 = load ptr, ptr %3, align 8, !tbaa !44
  %6 = getelementptr inbounds nuw %struct.Vec_Ptr_t_, ptr %5, i32 0, i32 2
  %7 = load ptr, ptr %6, align 8, !tbaa !48
  %8 = load i32, ptr %4, align 4, !tbaa !43
  %9 = sext i32 %8 to i64
  %10 = getelementptr inbounds ptr, ptr %7, i64 %9
  %11 = load ptr, ptr %10, align 8, !tbaa !118
  ret ptr %11
}

; Function Attrs: inlinehint nounwind uwtable
define internal ptr @Vec_PtrAllocArray(ptr noundef %0, i32 noundef %1) #5 {
  %3 = alloca ptr, align 8
  %4 = alloca i32, align 4
  %5 = alloca ptr, align 8
  store ptr %0, ptr %3, align 8, !tbaa !118
  store i32 %1, ptr %4, align 4, !tbaa !43
  call void @llvm.lifetime.start.p0(i64 8, ptr %5) #10
  %6 = call noalias ptr @malloc(i64 noundef 16) #11
  store ptr %6, ptr %5, align 8, !tbaa !44
  %7 = load i32, ptr %4, align 4, !tbaa !43
  %8 = load ptr, ptr %5, align 8, !tbaa !44
  %9 = getelementptr inbounds nuw %struct.Vec_Ptr_t_, ptr %8, i32 0, i32 1
  store i32 %7, ptr %9, align 4, !tbaa !45
  %10 = load i32, ptr %4, align 4, !tbaa !43
  %11 = load ptr, ptr %5, align 8, !tbaa !44
  %12 = getelementptr inbounds nuw %struct.Vec_Ptr_t_, ptr %11, i32 0, i32 0
  store i32 %10, ptr %12, align 8, !tbaa !47
  %13 = load ptr, ptr %3, align 8, !tbaa !118
  %14 = load ptr, ptr %5, align 8, !tbaa !44
  %15 = getelementptr inbounds nuw %struct.Vec_Ptr_t_, ptr %14, i32 0, i32 2
  store ptr %13, ptr %15, align 8, !tbaa !48
  %16 = load ptr, ptr %5, align 8, !tbaa !44
  call void @llvm.lifetime.end.p0(i64 8, ptr %5) #10
  ret ptr %16
}

; Function Attrs: inlinehint nounwind uwtable
define internal i32 @Vec_IntSize(ptr noundef %0) #5 {
  %2 = alloca ptr, align 8
  store ptr %0, ptr %2, align 8, !tbaa !49
  %3 = load ptr, ptr %2, align 8, !tbaa !49
  %4 = getelementptr inbounds nuw %struct.Vec_Int_t_, ptr %3, i32 0, i32 1
  %5 = load i32, ptr %4, align 4, !tbaa !50
  ret i32 %5
}

; Function Attrs: inlinehint nounwind uwtable
define internal void @Vec_PtrCleanSimInfo(ptr noundef %0, i32 noundef %1, i32 noundef %2) #5 {
  %4 = alloca ptr, align 8
  %5 = alloca i32, align 4
  %6 = alloca i32, align 4
  %7 = alloca i32, align 4
  store ptr %0, ptr %4, align 8, !tbaa !44
  store i32 %1, ptr %5, align 4, !tbaa !43
  store i32 %2, ptr %6, align 4, !tbaa !43
  call void @llvm.lifetime.start.p0(i64 4, ptr %7) #10
  store i32 0, ptr %7, align 4, !tbaa !43
  br label %8

8:                                                ; preds = %27, %3
  %9 = load i32, ptr %7, align 4, !tbaa !43
  %10 = load ptr, ptr %4, align 8, !tbaa !44
  %11 = getelementptr inbounds nuw %struct.Vec_Ptr_t_, ptr %10, i32 0, i32 1
  %12 = load i32, ptr %11, align 4, !tbaa !45
  %13 = icmp slt i32 %9, %12
  br i1 %13, label %14, label %30

14:                                               ; preds = %8
  %15 = load ptr, ptr %4, align 8, !tbaa !44
  %16 = load i32, ptr %7, align 4, !tbaa !43
  %17 = call ptr @Vec_PtrEntry(ptr noundef %15, i32 noundef %16)
  %18 = load i32, ptr %5, align 4, !tbaa !43
  %19 = mul nsw i32 4, %18
  %20 = sext i32 %19 to i64
  %21 = getelementptr inbounds i8, ptr %17, i64 %20
  %22 = load i32, ptr %6, align 4, !tbaa !43
  %23 = load i32, ptr %5, align 4, !tbaa !43
  %24 = sub nsw i32 %22, %23
  %25 = mul nsw i32 4, %24
  %26 = sext i32 %25 to i64
  call void @llvm.memset.p0.i64(ptr align 1 %21, i8 0, i64 %26, i1 false)
  br label %27

27:                                               ; preds = %14
  %28 = load i32, ptr %7, align 4, !tbaa !43
  %29 = add nsw i32 %28, 1
  store i32 %29, ptr %7, align 4, !tbaa !43
  br label %8, !llvm.loop !123

30:                                               ; preds = %8
  call void @llvm.lifetime.end.p0(i64 4, ptr %7) #10
  ret void
}

; Function Attrs: inlinehint nounwind uwtable
define internal i32 @Gia_ManCoNum(ptr noundef %0) #5 {
  %2 = alloca ptr, align 8
  store ptr %0, ptr %2, align 8, !tbaa !3
  %3 = load ptr, ptr %2, align 8, !tbaa !3
  %4 = getelementptr inbounds nuw %struct.Gia_Man_t_, ptr %3, i32 0, i32 12
  %5 = load ptr, ptr %4, align 8, !tbaa !71
  %6 = call i32 @Vec_IntSize(ptr noundef %5)
  ret i32 %6
}

; Function Attrs: inlinehint nounwind uwtable
define internal i32 @Gia_ManRegNum(ptr noundef %0) #5 {
  %2 = alloca ptr, align 8
  store ptr %0, ptr %2, align 8, !tbaa !3
  %3 = load ptr, ptr %2, align 8, !tbaa !3
  %4 = getelementptr inbounds nuw %struct.Gia_Man_t_, ptr %3, i32 0, i32 2
  %5 = load i32, ptr %4, align 8, !tbaa !122
  ret i32 %5
}

; Function Attrs: inlinehint nounwind uwtable
define internal ptr @Vec_PtrAllocSimInfo(i32 noundef %0, i32 noundef %1) #5 {
  %3 = alloca i32, align 4
  %4 = alloca i32, align 4
  %5 = alloca ptr, align 8
  %6 = alloca ptr, align 8
  %7 = alloca i32, align 4
  store i32 %0, ptr %3, align 4, !tbaa !43
  store i32 %1, ptr %4, align 4, !tbaa !43
  call void @llvm.lifetime.start.p0(i64 8, ptr %5) #10
  call void @llvm.lifetime.start.p0(i64 8, ptr %6) #10
  call void @llvm.lifetime.start.p0(i64 4, ptr %7) #10
  %8 = load i32, ptr %4, align 4, !tbaa !43
  %9 = sext i32 %8 to i64
  %10 = mul i64 4, %9
  %11 = add i64 8, %10
  %12 = load i32, ptr %3, align 4, !tbaa !43
  %13 = sext i32 %12 to i64
  %14 = mul i64 %11, %13
  %15 = mul i64 1, %14
  %16 = call noalias ptr @malloc(i64 noundef %15) #11
  store ptr %16, ptr %5, align 8, !tbaa !118
  %17 = load ptr, ptr %5, align 8, !tbaa !118
  %18 = load i32, ptr %3, align 4, !tbaa !43
  %19 = sext i32 %18 to i64
  %20 = getelementptr inbounds ptr, ptr %17, i64 %19
  store ptr %20, ptr %6, align 8, !tbaa !119
  store i32 0, ptr %7, align 4, !tbaa !43
  br label %21

21:                                               ; preds = %36, %2
  %22 = load i32, ptr %7, align 4, !tbaa !43
  %23 = load i32, ptr %3, align 4, !tbaa !43
  %24 = icmp slt i32 %22, %23
  br i1 %24, label %25, label %39

25:                                               ; preds = %21
  %26 = load ptr, ptr %6, align 8, !tbaa !119
  %27 = load i32, ptr %7, align 4, !tbaa !43
  %28 = load i32, ptr %4, align 4, !tbaa !43
  %29 = mul nsw i32 %27, %28
  %30 = sext i32 %29 to i64
  %31 = getelementptr inbounds i32, ptr %26, i64 %30
  %32 = load ptr, ptr %5, align 8, !tbaa !118
  %33 = load i32, ptr %7, align 4, !tbaa !43
  %34 = sext i32 %33 to i64
  %35 = getelementptr inbounds ptr, ptr %32, i64 %34
  store ptr %31, ptr %35, align 8, !tbaa !118
  br label %36

36:                                               ; preds = %25
  %37 = load i32, ptr %7, align 4, !tbaa !43
  %38 = add nsw i32 %37, 1
  store i32 %38, ptr %7, align 4, !tbaa !43
  br label %21, !llvm.loop !120

39:                                               ; preds = %21
  %40 = load ptr, ptr %5, align 8, !tbaa !118
  %41 = load i32, ptr %3, align 4, !tbaa !43
  %42 = call ptr @Vec_PtrAllocArray(ptr noundef %40, i32 noundef %41)
  call void @llvm.lifetime.end.p0(i64 4, ptr %7) #10
  call void @llvm.lifetime.end.p0(i64 8, ptr %6) #10
  call void @llvm.lifetime.end.p0(i64 8, ptr %5) #10
  ret ptr %42
}

; Function Attrs: inlinehint nounwind uwtable
define internal i32 @Gia_ManCiNum(ptr noundef %0) #5 {
  %2 = alloca ptr, align 8
  store ptr %0, ptr %2, align 8, !tbaa !3
  %3 = load ptr, ptr %2, align 8, !tbaa !3
  %4 = getelementptr inbounds nuw %struct.Gia_Man_t_, ptr %3, i32 0, i32 11
  %5 = load ptr, ptr %4, align 8, !tbaa !72
  %6 = call i32 @Vec_IntSize(ptr noundef %5)
  ret i32 %6
}

; Function Attrs: inlinehint nounwind uwtable
define internal ptr @Vec_IntAlloc(i32 noundef %0) #5 {
  %2 = alloca i32, align 4
  %3 = alloca ptr, align 8
  store i32 %0, ptr %2, align 4, !tbaa !43
  call void @llvm.lifetime.start.p0(i64 8, ptr %3) #10
  %4 = call noalias ptr @malloc(i64 noundef 16) #11
  store ptr %4, ptr %3, align 8, !tbaa !49
  %5 = load i32, ptr %2, align 4, !tbaa !43
  %6 = icmp sgt i32 %5, 0
  br i1 %6, label %7, label %11

7:                                                ; preds = %1
  %8 = load i32, ptr %2, align 4, !tbaa !43
  %9 = icmp slt i32 %8, 16
  br i1 %9, label %10, label %11

10:                                               ; preds = %7
  store i32 16, ptr %2, align 4, !tbaa !43
  br label %11

11:                                               ; preds = %10, %7, %1
  %12 = load ptr, ptr %3, align 8, !tbaa !49
  %13 = getelementptr inbounds nuw %struct.Vec_Int_t_, ptr %12, i32 0, i32 1
  store i32 0, ptr %13, align 4, !tbaa !50
  %14 = load i32, ptr %2, align 4, !tbaa !43
  %15 = load ptr, ptr %3, align 8, !tbaa !49
  %16 = getelementptr inbounds nuw %struct.Vec_Int_t_, ptr %15, i32 0, i32 0
  store i32 %14, ptr %16, align 8, !tbaa !51
  %17 = load ptr, ptr %3, align 8, !tbaa !49
  %18 = getelementptr inbounds nuw %struct.Vec_Int_t_, ptr %17, i32 0, i32 0
  %19 = load i32, ptr %18, align 8, !tbaa !51
  %20 = icmp ne i32 %19, 0
  br i1 %20, label %21, label %28

21:                                               ; preds = %11
  %22 = load ptr, ptr %3, align 8, !tbaa !49
  %23 = getelementptr inbounds nuw %struct.Vec_Int_t_, ptr %22, i32 0, i32 0
  %24 = load i32, ptr %23, align 8, !tbaa !51
  %25 = sext i32 %24 to i64
  %26 = mul i64 4, %25
  %27 = call noalias ptr @malloc(i64 noundef %26) #11
  br label %29

28:                                               ; preds = %11
  br label %29

29:                                               ; preds = %28, %21
  %30 = phi ptr [ %27, %21 ], [ null, %28 ]
  %31 = load ptr, ptr %3, align 8, !tbaa !49
  %32 = getelementptr inbounds nuw %struct.Vec_Int_t_, ptr %31, i32 0, i32 2
  store ptr %30, ptr %32, align 8, !tbaa !52
  %33 = load ptr, ptr %3, align 8, !tbaa !49
  call void @llvm.lifetime.end.p0(i64 8, ptr %3) #10
  ret ptr %33
}

; Function Attrs: inlinehint nounwind uwtable
define internal i32 @Gia_ManObjNum(ptr noundef %0) #5 {
  %2 = alloca ptr, align 8
  store ptr %0, ptr %2, align 8, !tbaa !3
  %3 = load ptr, ptr %2, align 8, !tbaa !3
  %4 = getelementptr inbounds nuw %struct.Gia_Man_t_, ptr %3, i32 0, i32 4
  %5 = load i32, ptr %4, align 8, !tbaa !26
  ret i32 %5
}

; Function Attrs: nounwind uwtable
define ptr @Cec_ManSimStart(ptr noundef %0, ptr noundef %1) #0 {
  %3 = alloca ptr, align 8
  %4 = alloca ptr, align 8
  %5 = alloca ptr, align 8
  store ptr %0, ptr %3, align 8, !tbaa !3
  store ptr %1, ptr %4, align 8, !tbaa !99
  call void @llvm.lifetime.start.p0(i64 8, ptr %5) #10
  %6 = call noalias ptr @malloc(i64 noundef 152) #11
  store ptr %6, ptr %5, align 8, !tbaa !101
  %7 = load ptr, ptr %5, align 8, !tbaa !101
  call void @llvm.memset.p0.i64(ptr align 8 %7, i8 0, i64 152, i1 false)
  %8 = load ptr, ptr %3, align 8, !tbaa !3
  %9 = load ptr, ptr %5, align 8, !tbaa !101
  %10 = getelementptr inbounds nuw %struct.Cec_ManSim_t_, ptr %9, i32 0, i32 0
  store ptr %8, ptr %10, align 8, !tbaa !103
  %11 = load ptr, ptr %4, align 8, !tbaa !99
  %12 = load ptr, ptr %5, align 8, !tbaa !101
  %13 = getelementptr inbounds nuw %struct.Cec_ManSim_t_, ptr %12, i32 0, i32 1
  store ptr %11, ptr %13, align 8, !tbaa !105
  %14 = load ptr, ptr %4, align 8, !tbaa !99
  %15 = getelementptr inbounds nuw %struct.Cec_ParSim_t_, ptr %14, i32 0, i32 0
  %16 = load i32, ptr %15, align 4, !tbaa !106
  %17 = load ptr, ptr %5, align 8, !tbaa !101
  %18 = getelementptr inbounds nuw %struct.Cec_ManSim_t_, ptr %17, i32 0, i32 2
  store i32 %16, ptr %18, align 8, !tbaa !108
  %19 = load ptr, ptr %3, align 8, !tbaa !3
  %20 = call i32 @Gia_ManObjNum(ptr noundef %19)
  %21 = sext i32 %20 to i64
  %22 = call noalias ptr @calloc(i64 noundef %21, i64 noundef 4) #12
  %23 = load ptr, ptr %5, align 8, !tbaa !101
  %24 = getelementptr inbounds nuw %struct.Cec_ManSim_t_, ptr %23, i32 0, i32 3
  store ptr %22, ptr %24, align 8, !tbaa !109
  %25 = call ptr @Vec_IntAlloc(i32 noundef 1000)
  %26 = load ptr, ptr %5, align 8, !tbaa !101
  %27 = getelementptr inbounds nuw %struct.Cec_ManSim_t_, ptr %26, i32 0, i32 18
  store ptr %25, ptr %27, align 8, !tbaa !110
  %28 = call ptr @Vec_IntAlloc(i32 noundef 1000)
  %29 = load ptr, ptr %5, align 8, !tbaa !101
  %30 = getelementptr inbounds nuw %struct.Cec_ManSim_t_, ptr %29, i32 0, i32 19
  store ptr %28, ptr %30, align 8, !tbaa !111
  %31 = call ptr @Vec_IntAlloc(i32 noundef 1000)
  %32 = load ptr, ptr %5, align 8, !tbaa !101
  %33 = getelementptr inbounds nuw %struct.Cec_ManSim_t_, ptr %32, i32 0, i32 20
  store ptr %31, ptr %33, align 8, !tbaa !112
  %34 = call ptr @Vec_IntAlloc(i32 noundef 10000)
  %35 = load ptr, ptr %5, align 8, !tbaa !101
  %36 = getelementptr inbounds nuw %struct.Cec_ManSim_t_, ptr %35, i32 0, i32 21
  store ptr %34, ptr %36, align 8, !tbaa !113
  %37 = load ptr, ptr %5, align 8, !tbaa !101
  %38 = getelementptr inbounds nuw %struct.Cec_ManSim_t_, ptr %37, i32 0, i32 0
  %39 = load ptr, ptr %38, align 8, !tbaa !103
  %40 = call i32 @Gia_ManCiNum(ptr noundef %39)
  %41 = load ptr, ptr %4, align 8, !tbaa !99
  %42 = getelementptr inbounds nuw %struct.Cec_ParSim_t_, ptr %41, i32 0, i32 0
  %43 = load i32, ptr %42, align 4, !tbaa !106
  %44 = call ptr @Vec_PtrAllocSimInfo(i32 noundef %40, i32 noundef %43)
  %45 = load ptr, ptr %5, align 8, !tbaa !101
  %46 = getelementptr inbounds nuw %struct.Cec_ManSim_t_, ptr %45, i32 0, i32 10
  store ptr %44, ptr %46, align 8, !tbaa !114
  %47 = load ptr, ptr %4, align 8, !tbaa !99
  %48 = getelementptr inbounds nuw %struct.Cec_ParSim_t_, ptr %47, i32 0, i32 6
  %49 = load i32, ptr %48, align 4, !tbaa !115
  %50 = icmp ne i32 %49, 0
  br i1 %50, label %57, label %51

51:                                               ; preds = %2
  %52 = load ptr, ptr %5, align 8, !tbaa !101
  %53 = getelementptr inbounds nuw %struct.Cec_ManSim_t_, ptr %52, i32 0, i32 0
  %54 = load ptr, ptr %53, align 8, !tbaa !103
  %55 = call i32 @Gia_ManRegNum(ptr noundef %54)
  %56 = icmp ne i32 %55, 0
  br i1 %56, label %57, label %74

57:                                               ; preds = %51, %2
  %58 = load ptr, ptr %5, align 8, !tbaa !101
  %59 = getelementptr inbounds nuw %struct.Cec_ManSim_t_, ptr %58, i32 0, i32 0
  %60 = load ptr, ptr %59, align 8, !tbaa !103
  %61 = call i32 @Gia_ManCoNum(ptr noundef %60)
  %62 = load ptr, ptr %4, align 8, !tbaa !99
  %63 = getelementptr inbounds nuw %struct.Cec_ParSim_t_, ptr %62, i32 0, i32 0
  %64 = load i32, ptr %63, align 4, !tbaa !106
  %65 = call ptr @Vec_PtrAllocSimInfo(i32 noundef %61, i32 noundef %64)
  %66 = load ptr, ptr %5, align 8, !tbaa !101
  %67 = getelementptr inbounds nuw %struct.Cec_ManSim_t_, ptr %66, i32 0, i32 11
  store ptr %65, ptr %67, align 8, !tbaa !116
  %68 = load ptr, ptr %5, align 8, !tbaa !101
  %69 = getelementptr inbounds nuw %struct.Cec_ManSim_t_, ptr %68, i32 0, i32 11
  %70 = load ptr, ptr %69, align 8, !tbaa !116
  %71 = load ptr, ptr %4, align 8, !tbaa !99
  %72 = getelementptr inbounds nuw %struct.Cec_ParSim_t_, ptr %71, i32 0, i32 0
  %73 = load i32, ptr %72, align 4, !tbaa !106
  call void @Vec_PtrCleanSimInfo(ptr noundef %70, i32 noundef 0, i32 noundef %73)
  br label %74

74:                                               ; preds = %57, %51
  %75 = load ptr, ptr %5, align 8, !tbaa !101
  %76 = getelementptr inbounds nuw %struct.Cec_ManSim_t_, ptr %75, i32 0, i32 13
  store i32 -1, ptr %76, align 8, !tbaa !117
  %77 = load ptr, ptr %5, align 8, !tbaa !101
  call void @llvm.lifetime.end.p0(i64 8, ptr %5) #10
  ret ptr %77
}