; Function Attrs: nofree nounwind uwtable
define noalias noundef ptr @Cec_ManSimStart(ptr noundef %0, ptr noundef %1) local_unnamed_addr #11 {
  %calloc = tail call dereferenceable_or_null(152) ptr @calloc(i64 1, i64 152)
  store ptr %0, ptr %calloc, align 8, !tbaa !91
  %3 = getelementptr inbounds nuw i8, ptr %calloc, i64 8
  store ptr %1, ptr %3, align 8, !tbaa !94
  %4 = load i32, ptr %1, align 4, !tbaa !95
  %5 = getelementptr inbounds nuw i8, ptr %calloc, i64 16
  store i32 %4, ptr %5, align 8, !tbaa !97
  %6 = getelementptr i8, ptr %0, i64 24
  %.val = load i32, ptr %6, align 8, !tbaa !17
  %7 = sext i32 %.val to i64
  %8 = tail call noalias ptr @calloc(i64 noundef %7, i64 noundef 4) #16
  %9 = getelementptr inbounds nuw i8, ptr %calloc, i64 24
  store ptr %8, ptr %9, align 8, !tbaa !98
  %10 = tail call noalias dereferenceable_or_null(16) ptr @malloc(i64 noundef 16) #17
  %11 = getelementptr inbounds nuw i8, ptr %10, i64 4
  store i32 0, ptr %11, align 4, !tbaa !41
  store i32 1000, ptr %10, align 8, !tbaa !42
  %12 = tail call noalias dereferenceable_or_null(4000) ptr @malloc(i64 noundef 4000) #17
  %13 = getelementptr inbounds nuw i8, ptr %10, i64 8
  store ptr %12, ptr %13, align 8, !tbaa !43
  %14 = getelementptr inbounds nuw i8, ptr %calloc, i64 120
  store ptr %10, ptr %14, align 8, !tbaa !99
  %15 = tail call noalias dereferenceable_or_null(16) ptr @malloc(i64 noundef 16) #17
  %16 = getelementptr inbounds nuw i8, ptr %15, i64 4
  store i32 0, ptr %16, align 4, !tbaa !41
  store i32 1000, ptr %15, align 8, !tbaa !42
  %17 = tail call noalias dereferenceable_or_null(4000) ptr @malloc(i64 noundef 4000) #17
  %18 = getelementptr inbounds nuw i8, ptr %15, i64 8
  store ptr %17, ptr %18, align 8, !tbaa !43
  %19 = getelementptr inbounds nuw i8, ptr %calloc, i64 128
  store ptr %15, ptr %19, align 8, !tbaa !100
  %20 = tail call noalias dereferenceable_or_null(16) ptr @malloc(i64 noundef 16) #17
  %21 = getelementptr inbounds nuw i8, ptr %20, i64 4
  store i32 0, ptr %21, align 4, !tbaa !41
  store i32 1000, ptr %20, align 8, !tbaa !42
  %22 = tail call noalias dereferenceable_or_null(4000) ptr @malloc(i64 noundef 4000) #17
  %23 = getelementptr inbounds nuw i8, ptr %20, i64 8
  store ptr %22, ptr %23, align 8, !tbaa !43
  %24 = getelementptr inbounds nuw i8, ptr %calloc, i64 136
  store ptr %20, ptr %24, align 8, !tbaa !101
  %25 = tail call noalias dereferenceable_or_null(16) ptr @malloc(i64 noundef 16) #17
  %26 = getelementptr inbounds nuw i8, ptr %25, i64 4
  store i32 0, ptr %26, align 4, !tbaa !41
  store i32 10000, ptr %25, align 8, !tbaa !42
  %27 = tail call noalias dereferenceable_or_null(40000) ptr @malloc(i64 noundef 40000) #17
  %28 = getelementptr inbounds nuw i8, ptr %25, i64 8
  store ptr %27, ptr %28, align 8, !tbaa !43
  %29 = getelementptr inbounds nuw i8, ptr %calloc, i64 144
  store ptr %25, ptr %29, align 8, !tbaa !102
  %30 = getelementptr i8, ptr %0, i64 64
  %.val27 = load ptr, ptr %30, align 8, !tbaa !47
  %31 = getelementptr i8, ptr %.val27, i64 4
  %.val27.val = load i32, ptr %31, align 4, !tbaa !41
  %32 = sext i32 %4 to i64
  %33 = shl nsw i64 %32, 2
  %34 = add nsw i64 %33, 8
  %35 = sext i32 %.val27.val to i64
  %36 = mul i64 %34, %35
  %37 = tail call noalias ptr @malloc(i64 noundef %36) #17
  %38 = getelementptr inbounds ptr, ptr %37, i64 %35
  %39 = icmp sgt i32 %.val27.val, 0
  br i1 %39, label %.lr.ph.preheader.i, label %Vec_PtrAllocSimInfo.exit

.lr.ph.preheader.i:                               ; preds = %2
  %wide.trip.count.i = zext nneg i32 %.val27.val to i64
  br label %.lr.ph.i

.lr.ph.i:                                         ; preds = %.lr.ph.i, %.lr.ph.preheader.i
  %indvars.iv.i = phi i64 [ 0, %.lr.ph.preheader.i ], [ %indvars.iv.next.i, %.lr.ph.i ]
  %40 = mul nsw i64 %indvars.iv.i, %32
  %41 = getelementptr inbounds i32, ptr %38, i64 %40
  %42 = getelementptr inbounds nuw ptr, ptr %37, i64 %indvars.iv.i
  store ptr %41, ptr %42, align 8, !tbaa !103
  %indvars.iv.next.i = add nuw nsw i64 %indvars.iv.i, 1
  %exitcond.not.i = icmp eq i64 %indvars.iv.next.i, %wide.trip.count.i
  br i1 %exitcond.not.i, label %Vec_PtrAllocSimInfo.exit, label %.lr.ph.i, !llvm.loop !104

Vec_PtrAllocSimInfo.exit:                         ; preds = %.lr.ph.i, %2
  %43 = tail call noalias dereferenceable_or_null(16) ptr @malloc(i64 noundef 16) #17
  %44 = getelementptr inbounds nuw i8, ptr %43, i64 4
  store i32 %.val27.val, ptr %44, align 4, !tbaa !35
  store i32 %.val27.val, ptr %43, align 8, !tbaa !37
  %45 = getelementptr inbounds nuw i8, ptr %43, i64 8
  store ptr %37, ptr %45, align 8, !tbaa !38
  %46 = getelementptr inbounds nuw i8, ptr %calloc, i64 64
  store ptr %43, ptr %46, align 8, !tbaa !106
  %47 = getelementptr inbounds nuw i8, ptr %1, i64 24
  %48 = load i32, ptr %47, align 4, !tbaa !107
  %.not = icmp eq i32 %48, 0
  br i1 %.not, label %49, label %51

49:                                               ; preds = %Vec_PtrAllocSimInfo.exit
  %50 = getelementptr i8, ptr %0, i64 16
  %.val28 = load i32, ptr %50, align 8, !tbaa !108
  %.not25 = icmp eq i32 %.val28, 0
  br i1 %.not25, label %Vec_PtrCleanSimInfo.exit, label %51

51:                                               ; preds = %49, %Vec_PtrAllocSimInfo.exit
  %52 = getelementptr i8, ptr %0, i64 72
  %.val26 = load ptr, ptr %52, align 8, !tbaa !46
  %53 = getelementptr i8, ptr %.val26, i64 4
  %.val26.val = load i32, ptr %53, align 4, !tbaa !41
  %54 = sext i32 %.val26.val to i64
  %55 = mul i64 %34, %54
  %56 = tail call noalias ptr @malloc(i64 noundef %55) #17
  %57 = getelementptr inbounds ptr, ptr %56, i64 %54
  %58 = icmp sgt i32 %.val26.val, 0
  br i1 %58, label %.lr.ph.preheader.i29, label %Vec_PtrAllocSimInfo.exit35

.lr.ph.preheader.i29:                             ; preds = %51
  %wide.trip.count.i30 = zext nneg i32 %.val26.val to i64
  br label %.lr.ph.i31

.lr.ph.i31:                                       ; preds = %.lr.ph.i31, %.lr.ph.preheader.i29
  %indvars.iv.i32 = phi i64 [ 0, %.lr.ph.preheader.i29 ], [ %indvars.iv.next.i33, %.lr.ph.i31 ]
  %59 = mul nsw i64 %indvars.iv.i32, %32
  %60 = getelementptr inbounds i32, ptr %57, i64 %59
  %61 = getelementptr inbounds nuw ptr, ptr %56, i64 %indvars.iv.i32
  store ptr %60, ptr %61, align 8, !tbaa !103
  %indvars.iv.next.i33 = add nuw nsw i64 %indvars.iv.i32, 1
  %exitcond.not.i34 = icmp eq i64 %indvars.iv.next.i33, %wide.trip.count.i30
  br i1 %exitcond.not.i34, label %Vec_PtrAllocSimInfo.exit35, label %.lr.ph.i31, !llvm.loop !104

Vec_PtrAllocSimInfo.exit35:                       ; preds = %.lr.ph.i31, %51
  %62 = tail call noalias dereferenceable_or_null(16) ptr @malloc(i64 noundef 16) #17
  %63 = getelementptr inbounds nuw i8, ptr %62, i64 4
  store i32 %.val26.val, ptr %63, align 4, !tbaa !35
  store i32 %.val26.val, ptr %62, align 8, !tbaa !37
  %64 = getelementptr inbounds nuw i8, ptr %62, i64 8
  store ptr %56, ptr %64, align 8, !tbaa !38
  %65 = getelementptr inbounds nuw i8, ptr %calloc, i64 72
  store ptr %62, ptr %65, align 8, !tbaa !109
  br i1 %58, label %.lr.ph.i36, label %Vec_PtrCleanSimInfo.exit

.lr.ph.i36:                                       ; preds = %Vec_PtrAllocSimInfo.exit35
  %66 = shl nsw i32 %4, 2
  %67 = sext i32 %66 to i64
  br label %68

68:                                               ; preds = %68, %.lr.ph.i36
  %indvars.iv.i37 = phi i64 [ 0, %.lr.ph.i36 ], [ %indvars.iv.next.i38, %68 ]
  %.val.i = load ptr, ptr %64, align 8, !tbaa !38
  %69 = getelementptr inbounds nuw ptr, ptr %.val.i, i64 %indvars.iv.i37
  %70 = load ptr, ptr %69, align 8, !tbaa !103
  tail call void @llvm.memset.p0.i64(ptr align 1 %70, i8 0, i64 %67, i1 false)
  %indvars.iv.next.i38 = add nuw nsw i64 %indvars.iv.i37, 1
  %71 = load i32, ptr %63, align 4, !tbaa !35
  %72 = sext i32 %71 to i64
  %73 = icmp slt i64 %indvars.iv.next.i38, %72
  br i1 %73, label %68, label %Vec_PtrCleanSimInfo.exit, !llvm.loop !110

Vec_PtrCleanSimInfo.exit:                         ; preds = %68, %Vec_PtrAllocSimInfo.exit35, %49
  %74 = getelementptr inbounds nuw i8, ptr %calloc, i64 88
  store i32 -1, ptr %74, align 8, !tbaa !111
  ret ptr %calloc
}